; ModuleID = '25/559.cpp'
source_filename = "25/559.cpp"
target datalayout = "e-m:e-p270:32:32-p271:32:32-p272:64:64-i64:64-f80:128-n8:16:32:64-S128"
target triple = "x86_64-pc-linux-gnu"

%"class.std::ios_base::Init" = type { i8 }
%"class.std::basic_istream" = type { i32 (...)**, i64, %"class.std::basic_ios" }
%"class.std::basic_ios" = type { %"class.std::ios_base", %"class.std::basic_ostream"*, i8, i8, %"class.std::basic_streambuf"*, %"class.std::ctype"*, %"class.std::num_put"*, %"class.std::num_get"* }
%"class.std::ios_base" = type { i32 (...)**, i64, i64, i32, i32, i32, %"struct.std::ios_base::_Callback_list"*, %"struct.std::ios_base::_Words", [8 x %"struct.std::ios_base::_Words"], i32, %"struct.std::ios_base::_Words"*, %"class.std::locale" }
%"struct.std::ios_base::_Callback_list" = type { %"struct.std::ios_base::_Callback_list"*, void (i32, %"class.std::ios_base"*, i32)*, i32, i32 }
%"struct.std::ios_base::_Words" = type { i8*, i64 }
%"class.std::locale" = type { %"class.std::locale::_Impl"* }
%"class.std::locale::_Impl" = type { i32, %"class.std::locale::facet"**, i64, %"class.std::locale::facet"**, i8** }
%"class.std::locale::facet" = type <{ i32 (...)**, i32, [4 x i8] }>
%"class.std::basic_ostream" = type { i32 (...)**, %"class.std::basic_ios" }
%"class.std::basic_streambuf" = type { i32 (...)**, i8*, i8*, i8*, i8*, i8*, i8*, %"class.std::locale" }
%"class.std::ctype" = type <{ %"class.std::locale::facet.base", [4 x i8], %struct.__locale_struct*, i8, [7 x i8], i32*, i32*, i16*, i8, [256 x i8], [256 x i8], i8, [6 x i8] }>
%"class.std::locale::facet.base" = type <{ i32 (...)**, i32 }>
%struct.__locale_struct = type { [13 x %struct.__locale_data*], i16*, i32*, i32*, [13 x i8*] }
%struct.__locale_data = type opaque
%"class.std::num_put" = type { %"class.std::locale::facet.base", [4 x i8] }
%"class.std::num_get" = type { %"class.std::locale::facet.base", [4 x i8] }

@_ZStL8__ioinit = internal global %"class.std::ios_base::Init" zeroinitializer, align 1
@__dso_handle = external hidden global i8
@_ZSt3cin = external dso_local global %"class.std::basic_istream", align 8
@_ZSt4cout = external dso_local global %"class.std::basic_ostream", align 8
@llvm.global_ctors = appending global [1 x { i32, void ()*, i8* }] [{ i32, void ()*, i8* } { i32 65535, void ()* @_GLOBAL__sub_I_559.cpp, i8* null }]

; Function Attrs: noinline uwtable
define internal void @__cxx_global_var_init() #0 section ".text.startup" {
  call void @_ZNSt8ios_base4InitC1Ev(%"class.std::ios_base::Init"* @_ZStL8__ioinit)
  %1 = call i32 @__cxa_atexit(void (i8*)* bitcast (void (%"class.std::ios_base::Init"*)* @_ZNSt8ios_base4InitD1Ev to void (i8*)*), i8* getelementptr inbounds (%"class.std::ios_base::Init", %"class.std::ios_base::Init"* @_ZStL8__ioinit, i32 0, i32 0), i8* @__dso_handle) #3
  ret void
}

declare dso_local void @_ZNSt8ios_base4InitC1Ev(%"class.std::ios_base::Init"*) unnamed_addr #1

; Function Attrs: nounwind
declare dso_local void @_ZNSt8ios_base4InitD1Ev(%"class.std::ios_base::Init"*) unnamed_addr #2

; Function Attrs: nounwind
declare dso_local i32 @__cxa_atexit(void (i8*)*, i8*, i8*) #3

; Function Attrs: noinline norecurse uwtable
define dso_local i32 @main() #4 {
  %1 = alloca i32, align 4
  %2 = alloca [10011 x i32], align 16
  %3 = alloca [10011 x i32], align 16
  %4 = alloca i32, align 4
  %5 = alloca i32, align 4
  %6 = alloca i32, align 4
  store i32 0, i32* %1, align 4
  %7 = bitcast [10011 x i32]* %2 to i8*
  call void @llvm.memset.p0i8.i64(i8* align 16 %7, i8 0, i64 40044, i1 false)
  %8 = bitcast [10011 x i32]* %3 to i8*
  call void @llvm.memset.p0i8.i64(i8* align 16 %8, i8 0, i64 40044, i1 false)
  %9 = bitcast i8* %8 to <{ i32, [10010 x i32] }>*
  %10 = getelementptr inbounds <{ i32, [10010 x i32] }>, <{ i32, [10010 x i32] }>* %9, i32 0, i32 0
  store i32 1, i32* %10, align 16
  store i32 0, i32* %5, align 4
  store i32 0, i32* %6, align 4
  %11 = call dereferenceable(280) %"class.std::basic_istream"* @_ZNSirsERi(%"class.std::basic_istream"* @_ZSt3cin, i32* dereferenceable(4) %6)
  br label %12

12:                                               ; preds = %77, %0
  %13 = load i32, i32* %6, align 4
  %14 = icmp sgt i32 %13, 0
  br i1 %14, label %15, label %82

15:                                               ; preds = %12
  store i32 0, i32* %4, align 4
  br label %16

16:                                               ; preds = %51, %15
  %17 = load i32, i32* %4, align 4
  %18 = icmp slt i32 %17, 10000
  br i1 %18, label %19, label %54

19:                                               ; preds = %16
  %20 = load i32, i32* %4, align 4
  %21 = sext i32 %20 to i64
  %22 = getelementptr inbounds [10011 x i32], [10011 x i32]* %3, i64 0, i64 %21
  %23 = load i32, i32* %22, align 4
  %24 = mul nsw i32 %23, 2
  %25 = load i32, i32* %4, align 4
  %26 = sext i32 %25 to i64
  %27 = getelementptr inbounds [10011 x i32], [10011 x i32]* %2, i64 0, i64 %26
  %28 = load i32, i32* %27, align 4
  %29 = add nsw i32 %28, %24
  store i32 %29, i32* %27, align 4
  %30 = load i32, i32* %4, align 4
  %31 = sext i32 %30 to i64
  %32 = getelementptr inbounds [10011 x i32], [10011 x i32]* %2, i64 0, i64 %31
  %33 = load i32, i32* %32, align 4
  %34 = icmp sge i32 %33, 10
  br i1 %34, label %35, label %50

35:                                               ; preds = %19
  %36 = load i32, i32* %4, align 4
  %37 = add nsw i32 %36, 1
  %38 = sext i32 %37 to i64
  %39 = getelementptr inbounds [10011 x i32], [10011 x i32]* %2, i64 0, i64 %38
  %40 = load i32, i32* %39, align 4
  %41 = add nsw i32 %40, 1
  store i32 %41, i32* %39, align 4
  %42 = load i32, i32* %4, align 4
  %43 = sext i32 %42 to i64
  %44 = getelementptr inbounds [10011 x i32], [10011 x i32]* %2, i64 0, i64 %43
  %45 = load i32, i32* %44, align 4
  %46 = srem i32 %45, 10
  %47 = load i32, i32* %4, align 4
  %48 = sext i32 %47 to i64
  %49 = getelementptr inbounds [10011 x i32], [10011 x i32]* %2, i64 0, i64 %48
  store i32 %46, i32* %49, align 4
  br label %50

50:                                               ; preds = %35, %19
  br label %51

51:                                               ; preds = %50
  %52 = load i32, i32* %4, align 4
  %53 = add nsw i32 %52, 1
  store i32 %53, i32* %4, align 4
  br label %16

54:                                               ; preds = %16
  store i32 0, i32* %4, align 4
  br label %55

55:                                               ; preds = %66, %54
  %56 = load i32, i32* %4, align 4
  %57 = icmp slt i32 %56, 10000
  br i1 %57, label %58, label %69

58:                                               ; preds = %55
  %59 = load i32, i32* %4, align 4
  %60 = sext i32 %59 to i64
  %61 = getelementptr inbounds [10011 x i32], [10011 x i32]* %2, i64 0, i64 %60
  %62 = load i32, i32* %61, align 4
  %63 = load i32, i32* %4, align 4
  %64 = sext i32 %63 to i64
  %65 = getelementptr inbounds [10011 x i32], [10011 x i32]* %3, i64 0, i64 %64
  store i32 %62, i32* %65, align 4
  br label %66

66:                                               ; preds = %58
  %67 = load i32, i32* %4, align 4
  %68 = add nsw i32 %67, 1
  store i32 %68, i32* %4, align 4
  br label %55

69:                                               ; preds = %55
  store i32 0, i32* %4, align 4
  br label %70

70:                                               ; preds = %74, %69
  %71 = load i32, i32* %4, align 4
  %72 = icmp slt i32 %71, 100
  br i1 %72, label %73, label %77

73:                                               ; preds = %70
  br label %74

74:                                               ; preds = %73
  %75 = load i32, i32* %4, align 4
  %76 = add nsw i32 %75, 1
  store i32 %76, i32* %4, align 4
  br label %70

77:                                               ; preds = %70
  %78 = getelementptr inbounds [10011 x i32], [10011 x i32]* %2, i64 0, i64 0
  %79 = bitcast i32* %78 to i8*
  call void @llvm.memset.p0i8.i64(i8* align 16 %79, i8 0, i64 40044, i1 false)
  %80 = load i32, i32* %6, align 4
  %81 = add nsw i32 %80, -1
  store i32 %81, i32* %6, align 4
  br label %12

82:                                               ; preds = %12
  store i32 10000, i32* %4, align 4
  br label %83

83:                                               ; preds = %107, %82
  %84 = load i32, i32* %4, align 4
  %85 = icmp sge i32 %84, 0
  br i1 %85, label %86, label %110

86:                                               ; preds = %83
  %87 = load i32, i32* %4, align 4
  %88 = sext i32 %87 to i64
  %89 = getelementptr inbounds [10011 x i32], [10011 x i32]* %3, i64 0, i64 %88
  %90 = load i32, i32* %89, align 4
  %91 = icmp ne i32 %90, 0
  br i1 %91, label %92, label %106

92:                                               ; preds = %86
  br label %93

93:                                               ; preds = %102, %92
  %94 = load i32, i32* %4, align 4
  %95 = icmp sge i32 %94, 0
  br i1 %95, label %96, label %105

96:                                               ; preds = %93
  %97 = load i32, i32* %4, align 4
  %98 = sext i32 %97 to i64
  %99 = getelementptr inbounds [10011 x i32], [10011 x i32]* %3, i64 0, i64 %98
  %100 = load i32, i32* %99, align 4
  %101 = call dereferenceable(272) %"class.std::basic_ostream"* @_ZNSolsEi(%"class.std::basic_ostream"* @_ZSt4cout, i32 %100)
  br label %102

102:                                              ; preds = %96
  %103 = load i32, i32* %4, align 4
  %104 = add nsw i32 %103, -1
  store i32 %104, i32* %4, align 4
  br label %93

105:                                              ; preds = %93
  br label %110

106:                                              ; preds = %86
  br label %107

107:                                              ; preds = %106
  %108 = load i32, i32* %4, align 4
  %109 = add nsw i32 %108, -1
  store i32 %109, i32* %4, align 4
  br label %83

110:                                              ; preds = %105, %83
  %111 = call dereferenceable(272) %"class.std::basic_ostream"* @_ZNSolsEPFRSoS_E(%"class.std::basic_ostream"* @_ZSt4cout, %"class.std::basic_ostream"* (%"class.std::basic_ostream"*)* @_ZSt4endlIcSt11char_traitsIcEERSt13basic_ostreamIT_T0_ES6_)
  ret i32 0
}

; Function Attrs: argmemonly nounwind willreturn
declare void @llvm.memset.p0i8.i64(i8* nocapture writeonly, i8, i64, i1 immarg) #5

declare dso_local dereferenceable(280) %"class.std::basic_istream"* @_ZNSirsERi(%"class.std::basic_istream"*, i32* dereferenceable(4)) #1

declare dso_local dereferenceable(272) %"class.std::basic_ostream"* @_ZNSolsEi(%"class.std::basic_ostream"*, i32) #1

declare dso_local dereferenceable(272) %"class.std::basic_ostream"* @_ZNSolsEPFRSoS_E(%"class.std::basic_ostream"*, %"class.std::basic_ostream"* (%"class.std::basic_ostream"*)*) #1

declare dso_local dereferenceable(272) %"class.std::basic_ostream"* @_ZSt4endlIcSt11char_traitsIcEERSt13basic_ostreamIT_T0_ES6_(%"class.std::basic_ostream"* dereferenceable(272)) #1

; Function Attrs: noinline uwtable
define internal void @_GLOBAL__sub_I_559.cpp() #0 section ".text.startup" {
  call void @__cxx_global_var_init()
  ret void
}


!llvm.module.flags = !{!0}
!llvm.ident = !{!1}

!0 = !{i32 1, !"wchar_size", i32 4}
!1 = !{!"clang version 10.0.0-4ubuntu1 "}
