; ModuleID = 'source-C-CXX/24/559.cpp'
source_filename = "source-C-CXX/24/559.cpp"
target datalayout = "e-m:e-p270:32:32-p271:32:32-p272:64:64-i64:64-f80:128-n8:16:32:64-S128"
target triple = "x86_64-pc-linux-gnu"

%"class.std::ios_base::Init" = type { i8 }
%"class.std::basic_istream" = type { i32 (...)**, i64, %"class.std::basic_ios" }
%"class.std::basic_ios" = type { %"class.std::ios_base", %"class.std::basic_ostream"*, i8, i8, %"class.std::basic_streambuf"*, %"class.std::ctype"*, %"class.std::num_put"*, %"class.std::num_get"* }
%"class.std::ios_base" = type { i32 (...)**, i64, i64, i32, i32, i32, %"struct.std::ios_base::_Callback_list"*, %"struct.std::ios_base::_Words", [8 x %"struct.std::ios_base::_Words"], i32, %"struct.std::ios_base::_Words"*, %"class.std::locale" }
%"struct.std::ios_base::_Callback_list" = type { %"struct.std::ios_base::_Callback_list"*, void (i32, %"class.std::ios_base"*, i32)*, i32, i32 }
%"struct.std::ios_base::_Words" = type { i8*, i64 }
%"class.std::locale" = type { %"class.std::locale::_Impl"* }
%"class.std::locale::_Impl" = type { i32, %"class.std::locale::facet"**, i64, %"class.std::locale::facet"**, i8** }
%"class.std::locale::facet" = type <{ i32 (...)**, i32, [4 x i8] }>
%"class.std::basic_ostream" = type { i32 (...)**, %"class.std::basic_ios" }
%"class.std::basic_streambuf" = type { i32 (...)**, i8*, i8*, i8*, i8*, i8*, i8*, %"class.std::locale" }
%"class.std::ctype" = type <{ %"class.std::locale::facet.base", [4 x i8], %struct.__locale_struct*, i8, [7 x i8], i32*, i32*, i16*, i8, [256 x i8], [256 x i8], i8, [6 x i8] }>
%"class.std::locale::facet.base" = type <{ i32 (...)**, i32 }>
%struct.__locale_struct = type { [13 x %struct.__locale_data*], i16*, i32*, i32*, [13 x i8*] }
%struct.__locale_data = type opaque
%"class.std::num_put" = type { %"class.std::locale::facet.base", [4 x i8] }
%"class.std::num_get" = type { %"class.std::locale::facet.base", [4 x i8] }

@_ZStL8__ioinit = internal global %"class.std::ios_base::Init" zeroinitializer, align 1
@__dso_handle = external hidden global i8
@_ZSt3cin = external global %"class.std::basic_istream", align 8
@_ZSt4cout = external global %"class.std::basic_ostream", align 8
@llvm.global_ctors = appending global [1 x { i32, void ()*, i8* }] [{ i32, void ()*, i8* } { i32 65535, void ()* @_GLOBAL__sub_I_559.cpp, i8* null }]

declare void @_ZNSt8ios_base4InitC1Ev(%"class.std::ios_base::Init"* nonnull align 1 dereferenceable(1)) unnamed_addr #0

; Function Attrs: nounwind
declare void @_ZNSt8ios_base4InitD1Ev(%"class.std::ios_base::Init"* nonnull align 1 dereferenceable(1)) unnamed_addr #1

; Function Attrs: nofree nounwind
declare i32 @__cxa_atexit(void (i8*)*, i8*, i8*) local_unnamed_addr #2

; Function Attrs: mustprogress norecurse sspstrong uwtable
define dso_local i32 @main() local_unnamed_addr #3 {
  %1 = alloca [10011 x i32], align 16
  %2 = bitcast [10011 x i32]* %1 to i8*
  %3 = alloca [10011 x i32], align 16
  %4 = bitcast [10011 x i32]* %3 to i8*
  %5 = alloca i32, align 4
  call void @llvm.lifetime.start.p0i8(i64 40044, i8* nonnull %2) #9
  call void @llvm.memset.p0i8.i64(i8* noundef nonnull align 16 dereferenceable(40044) %2, i8 0, i64 40044, i1 false)
  call void @llvm.lifetime.start.p0i8(i64 40044, i8* nonnull %4) #9
  call void @llvm.memset.p0i8.i64(i8* noundef nonnull align 16 dereferenceable(40044) %4, i8 0, i64 40044, i1 false)
  %6 = getelementptr inbounds [10011 x i32], [10011 x i32]* %3, i64 0, i64 0
  store i32 1, i32* %6, align 16
  %7 = bitcast i32* %5 to i8*
  call void @llvm.lifetime.start.p0i8(i64 4, i8* nonnull %7) #9
  store i32 0, i32* %5, align 4, !tbaa !5
  %8 = call nonnull align 8 dereferenceable(16) %"class.std::basic_istream"* @_ZNSirsERi(%"class.std::basic_istream"* nonnull align 8 dereferenceable(16) @_ZSt3cin, i32* nonnull align 4 dereferenceable(4) %5)
  %9 = load i32, i32* %5, align 4, !tbaa !5
  %10 = icmp sgt i32 %9, 0
  br i1 %10, label %12, label %11

11:                                               ; preds = %14, %0
  br label %35

12:                                               ; preds = %0, %32
  %13 = phi i32 [ %33, %32 ], [ %9, %0 ]
  br label %15

14:                                               ; preds = %32
  store i32 0, i32* %5, align 4, !tbaa !5
  br label %11

15:                                               ; preds = %12, %30
  %16 = phi i64 [ 0, %12 ], [ %24, %30 ]
  %17 = getelementptr inbounds [10011 x i32], [10011 x i32]* %3, i64 0, i64 %16
  %18 = load i32, i32* %17, align 4, !tbaa !5
  %19 = shl nsw i32 %18, 1
  %20 = getelementptr inbounds [10011 x i32], [10011 x i32]* %1, i64 0, i64 %16
  %21 = load i32, i32* %20, align 4, !tbaa !5
  %22 = add nsw i32 %21, %19
  store i32 %22, i32* %20, align 4, !tbaa !5
  %23 = icmp sgt i32 %22, 9
  %24 = add nuw nsw i64 %16, 1
  br i1 %23, label %25, label %30

25:                                               ; preds = %15
  %26 = getelementptr inbounds [10011 x i32], [10011 x i32]* %1, i64 0, i64 %24
  %27 = load i32, i32* %26, align 4, !tbaa !5
  %28 = add nsw i32 %27, 1
  store i32 %28, i32* %26, align 4, !tbaa !5
  %29 = urem i32 %22, 10
  store i32 %29, i32* %20, align 4, !tbaa !5
  br label %30

30:                                               ; preds = %15, %25
  %31 = icmp eq i64 %24, 10000
  br i1 %31, label %32, label %15, !llvm.loop !9

32:                                               ; preds = %30
  call void @llvm.memcpy.p0i8.p0i8.i64(i8* noundef nonnull align 16 dereferenceable(40000) %4, i8* noundef nonnull align 16 dereferenceable(40000) %2, i64 40000, i1 false)
  call void @llvm.memset.p0i8.i64(i8* noundef nonnull align 16 dereferenceable(40044) %2, i8 0, i64 40044, i1 false)
  %33 = add nsw i32 %13, -1
  %34 = icmp sgt i32 %13, 1
  br i1 %34, label %12, label %14, !llvm.loop !11

35:                                               ; preds = %105, %11
  %36 = phi i32 [ 10000, %11 ], [ %106, %105 ]
  %37 = zext i32 %36 to i64
  %38 = getelementptr inbounds [10011 x i32], [10011 x i32]* %3, i64 0, i64 %37
  %39 = load i32, i32* %38, align 16, !tbaa !5
  %40 = icmp eq i32 %39, 0
  br i1 %40, label %57, label %41

41:                                               ; preds = %99, %93, %88, %35
  %42 = phi i32 [ %36, %35 ], [ %58, %88 ], [ %94, %93 ], [ %100, %99 ]
  %43 = phi i32 [ %39, %35 ], [ %91, %88 ], [ %97, %93 ], [ %103, %99 ]
  %44 = icmp sgt i32 %42, -1
  br i1 %44, label %45, label %60

45:                                               ; preds = %41
  %46 = call nonnull align 8 dereferenceable(8) %"class.std::basic_ostream"* @_ZNSolsEi(%"class.std::basic_ostream"* nonnull align 8 dereferenceable(8) @_ZSt4cout, i32 %43)
  %47 = icmp eq i32 %42, 0
  br i1 %47, label %60, label %48, !llvm.loop !12

48:                                               ; preds = %45
  %49 = zext i32 %42 to i64
  br label %50

50:                                               ; preds = %48, %50
  %51 = phi i64 [ %52, %50 ], [ %49, %48 ]
  %52 = add nsw i64 %51, -1
  %53 = getelementptr inbounds [10011 x i32], [10011 x i32]* %3, i64 0, i64 %52
  %54 = load i32, i32* %53, align 4, !tbaa !5
  %55 = call nonnull align 8 dereferenceable(8) %"class.std::basic_ostream"* @_ZNSolsEi(%"class.std::basic_ostream"* nonnull align 8 dereferenceable(8) @_ZSt4cout, i32 %54)
  %56 = icmp sgt i64 %51, 1
  br i1 %56, label %50, label %60, !llvm.loop !12

57:                                               ; preds = %35
  %58 = add nsw i32 %36, -1
  %59 = icmp eq i32 %36, 0
  br i1 %59, label %60, label %88, !llvm.loop !13

60:                                               ; preds = %57, %50, %45, %41
  %61 = load i8*, i8** bitcast (%"class.std::basic_ostream"* @_ZSt4cout to i8**), align 8, !tbaa !14
  %62 = getelementptr i8, i8* %61, i64 -24
  %63 = bitcast i8* %62 to i64*
  %64 = load i64, i64* %63, align 8
  %65 = add nsw i64 %64, 240
  %66 = getelementptr inbounds i8, i8* bitcast (%"class.std::basic_ostream"* @_ZSt4cout to i8*), i64 %65
  %67 = bitcast i8* %66 to %"class.std::ctype"**
  %68 = load %"class.std::ctype"*, %"class.std::ctype"** %67, align 8, !tbaa !16
  %69 = icmp eq %"class.std::ctype"* %68, null
  br i1 %69, label %70, label %71

70:                                               ; preds = %60
  call void @_ZSt16__throw_bad_castv() #10
  unreachable

71:                                               ; preds = %60
  %72 = getelementptr inbounds %"class.std::ctype", %"class.std::ctype"* %68, i64 0, i32 8
  %73 = load i8, i8* %72, align 8, !tbaa !20
  %74 = icmp eq i8 %73, 0
  br i1 %74, label %78, label %75

75:                                               ; preds = %71
  %76 = getelementptr inbounds %"class.std::ctype", %"class.std::ctype"* %68, i64 0, i32 9, i64 10
  %77 = load i8, i8* %76, align 1, !tbaa !22
  br label %84

78:                                               ; preds = %71
  call void @_ZNKSt5ctypeIcE13_M_widen_initEv(%"class.std::ctype"* nonnull align 8 dereferenceable(570) %68)
  %79 = bitcast %"class.std::ctype"* %68 to i8 (%"class.std::ctype"*, i8)***
  %80 = load i8 (%"class.std::ctype"*, i8)**, i8 (%"class.std::ctype"*, i8)*** %79, align 8, !tbaa !14
  %81 = getelementptr inbounds i8 (%"class.std::ctype"*, i8)*, i8 (%"class.std::ctype"*, i8)** %80, i64 6
  %82 = load i8 (%"class.std::ctype"*, i8)*, i8 (%"class.std::ctype"*, i8)** %81, align 8
  %83 = call signext i8 %82(%"class.std::ctype"* nonnull align 8 dereferenceable(570) %68, i8 signext 10)
  br label %84

84:                                               ; preds = %75, %78
  %85 = phi i8 [ %77, %75 ], [ %83, %78 ]
  %86 = call nonnull align 8 dereferenceable(8) %"class.std::basic_ostream"* @_ZNSo3putEc(%"class.std::basic_ostream"* nonnull align 8 dereferenceable(8) @_ZSt4cout, i8 signext %85)
  %87 = call nonnull align 8 dereferenceable(8) %"class.std::basic_ostream"* @_ZNSo5flushEv(%"class.std::basic_ostream"* nonnull align 8 dereferenceable(8) %86)
  call void @llvm.lifetime.end.p0i8(i64 4, i8* nonnull %7) #9
  call void @llvm.lifetime.end.p0i8(i64 40044, i8* nonnull %4) #9
  call void @llvm.lifetime.end.p0i8(i64 40044, i8* nonnull %2) #9
  ret i32 0

88:                                               ; preds = %57
  %89 = zext i32 %58 to i64
  %90 = getelementptr inbounds [10011 x i32], [10011 x i32]* %3, i64 0, i64 %89
  %91 = load i32, i32* %90, align 4, !tbaa !5
  %92 = icmp eq i32 %91, 0
  br i1 %92, label %93, label %41

93:                                               ; preds = %88
  %94 = add nsw i32 %36, -2
  %95 = zext i32 %94 to i64
  %96 = getelementptr inbounds [10011 x i32], [10011 x i32]* %3, i64 0, i64 %95
  %97 = load i32, i32* %96, align 8, !tbaa !5
  %98 = icmp eq i32 %97, 0
  br i1 %98, label %99, label %41

99:                                               ; preds = %93
  %100 = add nsw i32 %36, -3
  %101 = zext i32 %100 to i64
  %102 = getelementptr inbounds [10011 x i32], [10011 x i32]* %3, i64 0, i64 %101
  %103 = load i32, i32* %102, align 4, !tbaa !5
  %104 = icmp eq i32 %103, 0
  br i1 %104, label %105, label %41

105:                                              ; preds = %99
  %106 = add nsw i32 %36, -4
  br label %35
}

; Function Attrs: argmemonly mustprogress nofree nosync nounwind willreturn
declare void @llvm.lifetime.start.p0i8(i64 immarg, i8* nocapture) #4

; Function Attrs: argmemonly mustprogress nofree nounwind willreturn writeonly
declare void @llvm.memset.p0i8.i64(i8* nocapture writeonly, i8, i64, i1 immarg) #5

declare nonnull align 8 dereferenceable(16) %"class.std::basic_istream"* @_ZNSirsERi(%"class.std::basic_istream"* nonnull align 8 dereferenceable(16), i32* nonnull align 4 dereferenceable(4)) local_unnamed_addr #0

declare nonnull align 8 dereferenceable(8) %"class.std::basic_ostream"* @_ZNSolsEi(%"class.std::basic_ostream"* nonnull align 8 dereferenceable(8), i32) local_unnamed_addr #0

; Function Attrs: argmemonly mustprogress nofree nosync nounwind willreturn
declare void @llvm.lifetime.end.p0i8(i64 immarg, i8* nocapture) #4

declare nonnull align 8 dereferenceable(8) %"class.std::basic_ostream"* @_ZNSo3putEc(%"class.std::basic_ostream"* nonnull align 8 dereferenceable(8), i8 signext) local_unnamed_addr #0

declare nonnull align 8 dereferenceable(8) %"class.std::basic_ostream"* @_ZNSo5flushEv(%"class.std::basic_ostream"* nonnull align 8 dereferenceable(8)) local_unnamed_addr #0

; Function Attrs: noreturn
declare void @_ZSt16__throw_bad_castv() local_unnamed_addr #6

declare void @_ZNKSt5ctypeIcE13_M_widen_initEv(%"class.std::ctype"* nonnull align 8 dereferenceable(570)) local_unnamed_addr #0

; Function Attrs: sspstrong uwtable
define internal void @_GLOBAL__sub_I_559.cpp() #7 section ".text.startup" {
  tail call void @_ZNSt8ios_base4InitC1Ev(%"class.std::ios_base::Init"* nonnull align 1 dereferenceable(1) @_ZStL8__ioinit)
  %1 = tail call i32 @__cxa_atexit(void (i8*)* bitcast (void (%"class.std::ios_base::Init"*)* @_ZNSt8ios_base4InitD1Ev to void (i8*)*), i8* getelementptr inbounds (%"class.std::ios_base::Init", %"class.std::ios_base::Init"* @_ZStL8__ioinit, i64 0, i32 0), i8* nonnull @__dso_handle) #9
  ret void
}

; Function Attrs: argmemonly nofree nounwind willreturn
declare void @llvm.memcpy.p0i8.p0i8.i64(i8* noalias nocapture writeonly, i8* noalias nocapture readonly, i64, i1 immarg) #8


!llvm.module.flags = !{!0, !1, !2, !3}
!llvm.ident = !{!4}

!0 = !{i32 1, !"wchar_size", i32 4}
!1 = !{i32 7, !"PIC Level", i32 2}
!2 = !{i32 7, !"PIE Level", i32 2}
!3 = !{i32 7, !"uwtable", i32 1}
!4 = !{!"clang version 13.0.0"}
!5 = !{!6, !6, i64 0}
!6 = !{!"int", !7, i64 0}
!7 = !{!"omnipotent char", !8, i64 0}
!8 = !{!"Simple C++ TBAA"}
!9 = distinct !{!9, !10}
!10 = !{!"llvm.loop.mustprogress"}
!11 = distinct !{!11, !10}
!12 = distinct !{!12, !10}
!13 = distinct !{!13, !10}
!14 = !{!15, !15, i64 0}
!15 = !{!"vtable pointer", !8, i64 0}
!16 = !{!17, !18, i64 240}
!17 = !{!"_ZTSSt9basic_iosIcSt11char_traitsIcEE", !18, i64 216, !7, i64 224, !19, i64 225, !18, i64 232, !18, i64 240, !18, i64 248, !18, i64 256}
!18 = !{!"any pointer", !7, i64 0}
!19 = !{!"bool", !7, i64 0}
!20 = !{!21, !7, i64 56}
!21 = !{!"_ZTSSt5ctypeIcE", !18, i64 16, !19, i64 24, !18, i64 32, !18, i64 40, !18, i64 48, !7, i64 56, !7, i64 57, !7, i64 313, !7, i64 569}
!22 = !{!7, !7, i64 0}
